target datalayout = "e-m:e-p270:32:32-p271:32:32-p272:64:64-i64:64-i128:128-f80:128-n8:16:32:64-S128"
target triple = "x86_64-pc-linux-gnu"

%struct.Fraig_HashTableStruct_t_ = type { ptr, i32, i32 }
%struct.Fraig_ManStruct_t_ = type { ptr, ptr, ptr, ptr, ptr, ptr, ptr, ptr, ptr, i32, i32, i32, i32, i32, i32, i32, i32, i32, i32, i32, i32, i64, i32, i32, i32, i32, i32, ptr, ptr, ptr, ptr, ptr, i32, ptr, ptr, ptr, ptr, ptr, ptr, i32, ptr, ptr, ptr, ptr, i32, i32, i32, i32, i32, i32, i32, i32, i32, i32, i32, i32, i32, i32, i32, i32, i32, i32, i32, i64, i64, i64, i64, i64, i64, i64, i64, i64, i64, i64, i64 }
%struct.Fraig_NodeStruct_t_ = type { i32, i32, i32, i32, i32, i32, i32, ptr, ptr, ptr, ptr, ptr, ptr, ptr, ptr, i32, i32, ptr, ptr, ptr, ptr, ptr, ptr, ptr }

; Function Attrs: nounwind uwtable
define i32 @Fraig_CompareSimInfo(ptr noundef %0, ptr noundef %1, i32 noundef %2, i32 noundef %3) #0 {
  %5 = alloca i32, align 4
  %6 = alloca ptr, align 8
  %7 = alloca ptr, align 8
  %8 = alloca i32, align 4
  %9 = alloca i32, align 4
  %10 = alloca i32, align 4
  %11 = alloca i32, align 4
  store ptr %0, ptr %6, align 8, !tbaa !19
  store ptr %1, ptr %7, align 8, !tbaa !19
  store i32 %2, ptr %8, align 4, !tbaa !3
  store i32 %3, ptr %9, align 4, !tbaa !3
  call void @llvm.lifetime.start.p0(i64 4, ptr %10) #7
  %12 = load i32, ptr %9, align 4, !tbaa !3
  %13 = icmp ne i32 %12, 0
  br i1 %13, label %14, label %50

14:                                               ; preds = %4
  %15 = load ptr, ptr %6, align 8, !tbaa !19
  %16 = getelementptr inbounds nuw %struct.Fraig_NodeStruct_t_, ptr %15, i32 0, i32 15
  %17 = load i32, ptr %16, align 8, !tbaa !44
  %18 = load ptr, ptr %7, align 8, !tbaa !19
  %19 = getelementptr inbounds nuw %struct.Fraig_NodeStruct_t_, ptr %18, i32 0, i32 15
  %20 = load i32, ptr %19, align 8, !tbaa !44
  %21 = icmp ne i32 %17, %20
  br i1 %21, label %22, label %23

22:                                               ; preds = %14
  store i32 0, ptr %5, align 4
  store i32 1, ptr %11, align 4
  br label %87

23:                                               ; preds = %14
  store i32 0, ptr %10, align 4, !tbaa !3
  br label %24

24:                                               ; preds = %46, %23
  %25 = load i32, ptr %10, align 4, !tbaa !3
  %26 = load i32, ptr %8, align 4, !tbaa !3
  %27 = icmp slt i32 %25, %26
  br i1 %27, label %28, label %49

28:                                               ; preds = %24
  %29 = load ptr, ptr %6, align 8, !tbaa !19
  %30 = getelementptr inbounds nuw %struct.Fraig_NodeStruct_t_, ptr %29, i32 0, i32 17
  %31 = load ptr, ptr %30, align 8, !tbaa !51
  %32 = load i32, ptr %10, align 4, !tbaa !3
  %33 = sext i32 %32 to i64
  %34 = getelementptr inbounds i32, ptr %31, i64 %33
  %35 = load i32, ptr %34, align 4, !tbaa !3
  %36 = load ptr, ptr %7, align 8, !tbaa !19
  %37 = getelementptr inbounds nuw %struct.Fraig_NodeStruct_t_, ptr %36, i32 0, i32 17
  %38 = load ptr, ptr %37, align 8, !tbaa !51
  %39 = load i32, ptr %10, align 4, !tbaa !3
  %40 = sext i32 %39 to i64
  %41 = getelementptr inbounds i32, ptr %38, i64 %40
  %42 = load i32, ptr %41, align 4, !tbaa !3
  %43 = icmp ne i32 %35, %42
  br i1 %43, label %44, label %45

44:                                               ; preds = %28
  store i32 0, ptr %5, align 4
  store i32 1, ptr %11, align 4
  br label %87

45:                                               ; preds = %28
  br label %46

46:                                               ; preds = %45
  %47 = load i32, ptr %10, align 4, !tbaa !3
  %48 = add nsw i32 %47, 1
  store i32 %48, ptr %10, align 4, !tbaa !3
  br label %24, !llvm.loop !52

49:                                               ; preds = %24
  br label %86

50:                                               ; preds = %4
  %51 = load ptr, ptr %6, align 8, !tbaa !19
  %52 = getelementptr inbounds nuw %struct.Fraig_NodeStruct_t_, ptr %51, i32 0, i32 16
  %53 = load i32, ptr %52, align 4, !tbaa !53
  %54 = load ptr, ptr %7, align 8, !tbaa !19
  %55 = getelementptr inbounds nuw %struct.Fraig_NodeStruct_t_, ptr %54, i32 0, i32 16
  %56 = load i32, ptr %55, align 4, !tbaa !53
  %57 = icmp ne i32 %53, %56
  br i1 %57, label %58, label %59

58:                                               ; preds = %50
  store i32 0, ptr %5, align 4
  store i32 1, ptr %11, align 4
  br label %87

59:                                               ; preds = %50
  store i32 0, ptr %10, align 4, !tbaa !3
  br label %60

60:                                               ; preds = %82, %59
  %61 = load i32, ptr %10, align 4, !tbaa !3
  %62 = load i32, ptr %8, align 4, !tbaa !3
  %63 = icmp slt i32 %61, %62
  br i1 %63, label %64, label %85

64:                                               ; preds = %60
  %65 = load ptr, ptr %6, align 8, !tbaa !19
  %66 = getelementptr inbounds nuw %struct.Fraig_NodeStruct_t_, ptr %65, i32 0, i32 18
  %67 = load ptr, ptr %66, align 8, !tbaa !54
  %68 = load i32, ptr %10, align 4, !tbaa !3
  %69 = sext i32 %68 to i64
  %70 = getelementptr inbounds i32, ptr %67, i64 %69
  %71 = load i32, ptr %70, align 4, !tbaa !3
  %72 = load ptr, ptr %7, align 8, !tbaa !19
  %73 = getelementptr inbounds nuw %struct.Fraig_NodeStruct_t_, ptr %72, i32 0, i32 18
  %74 = load ptr, ptr %73, align 8, !tbaa !54
  %75 = load i32, ptr %10, align 4, !tbaa !3
  %76 = sext i32 %75 to i64
  %77 = getelementptr inbounds i32, ptr %74, i64 %76
  %78 = load i32, ptr %77, align 4, !tbaa !3
  %79 = icmp ne i32 %71, %78
  br i1 %79, label %80, label %81

80:                                               ; preds = %64
  store i32 0, ptr %5, align 4
  store i32 1, ptr %11, align 4
  br label %87

81:                                               ; preds = %64
  br label %82

82:                                               ; preds = %81
  %83 = load i32, ptr %10, align 4, !tbaa !3
  %84 = add nsw i32 %83, 1
  store i32 %84, ptr %10, align 4, !tbaa !3
  br label %60, !llvm.loop !55

85:                                               ; preds = %60
  br label %86

86:                                               ; preds = %85, %49
  store i32 1, ptr %5, align 4
  store i32 1, ptr %11, align 4
  br label %87

87:                                               ; preds = %86, %80, %58, %44, %22
  call void @llvm.lifetime.end.p0(i64 4, ptr %10) #7
  %88 = load i32, ptr %5, align 4
  ret i32 %88
}

; Function Attrs: nounwind uwtable
define ptr @Fraig_HashTableLookupF(ptr noundef %0, ptr noundef %1) #0 {
  %3 = alloca ptr, align 8
  %4 = alloca ptr, align 8
  %5 = alloca ptr, align 8
  %6 = alloca ptr, align 8
  %7 = alloca ptr, align 8
  %8 = alloca ptr, align 8
  %9 = alloca i32, align 4
  %10 = alloca i32, align 4
  store ptr %0, ptr %4, align 8, !tbaa !17
  store ptr %1, ptr %5, align 8, !tbaa !19
  call void @llvm.lifetime.start.p0(i64 8, ptr %6) #7
  %11 = load ptr, ptr %4, align 8, !tbaa !17
  %12 = getelementptr inbounds nuw %struct.Fraig_ManStruct_t_, ptr %11, i32 0, i32 7
  %13 = load ptr, ptr %12, align 8, !tbaa !43
  store ptr %13, ptr %6, align 8, !tbaa !7
  call void @llvm.lifetime.start.p0(i64 8, ptr %7) #7
  call void @llvm.lifetime.start.p0(i64 8, ptr %8) #7
  call void @llvm.lifetime.start.p0(i64 4, ptr %9) #7
  %14 = load ptr, ptr %5, align 8, !tbaa !19
  %15 = getelementptr inbounds nuw %struct.Fraig_NodeStruct_t_, ptr %14, i32 0, i32 15
  %16 = load i32, ptr %15, align 8, !tbaa !44
  %17 = load ptr, ptr %6, align 8, !tbaa !7
  %18 = getelementptr inbounds nuw %struct.Fraig_HashTableStruct_t_, ptr %17, i32 0, i32 1
  %19 = load i32, ptr %18, align 8, !tbaa !10
  %20 = urem i32 %16, %19
  store i32 %20, ptr %9, align 4, !tbaa !3
  %21 = load ptr, ptr %6, align 8, !tbaa !7
  %22 = getelementptr inbounds nuw %struct.Fraig_HashTableStruct_t_, ptr %21, i32 0, i32 0
  %23 = load ptr, ptr %22, align 8, !tbaa !13
  %24 = load i32, ptr %9, align 4, !tbaa !3
  %25 = zext i32 %24 to i64
  %26 = getelementptr inbounds nuw ptr, ptr %23, i64 %25
  %27 = load ptr, ptr %26, align 8, !tbaa !19
  store ptr %27, ptr %7, align 8, !tbaa !19
  br label %28

28:                                               ; preds = %69, %2
  %29 = load ptr, ptr %7, align 8, !tbaa !19
  %30 = icmp ne ptr %29, null
  br i1 %30, label %31, label %73

31:                                               ; preds = %28
  %32 = load ptr, ptr %5, align 8, !tbaa !19
  %33 = load ptr, ptr %7, align 8, !tbaa !19
  %34 = load ptr, ptr %4, align 8, !tbaa !17
  %35 = getelementptr inbounds nuw %struct.Fraig_ManStruct_t_, ptr %34, i32 0, i32 9
  %36 = load i32, ptr %35, align 8, !tbaa !45
  %37 = call i32 @Fraig_CompareSimInfo(ptr noundef %32, ptr noundef %33, i32 noundef %36, i32 noundef 1)
  %38 = icmp ne i32 %37, 0
  br i1 %38, label %40, label %39

39:                                               ; preds = %31
  br label %69

40:                                               ; preds = %31
  %41 = load ptr, ptr %7, align 8, !tbaa !19
  store ptr %41, ptr %8, align 8, !tbaa !19
  br label %42

42:                                               ; preds = %56, %40
  %43 = load ptr, ptr %8, align 8, !tbaa !19
  %44 = icmp ne ptr %43, null
  br i1 %44, label %45, label %60

45:                                               ; preds = %42
  %46 = load ptr, ptr %5, align 8, !tbaa !19
  %47 = load ptr, ptr %8, align 8, !tbaa !19
  %48 = load ptr, ptr %4, align 8, !tbaa !17
  %49 = getelementptr inbounds nuw %struct.Fraig_ManStruct_t_, ptr %48, i32 0, i32 24
  %50 = load i32, ptr %49, align 8, !tbaa !46
  %51 = call i32 @Fraig_CompareSimInfo(ptr noundef %46, ptr noundef %47, i32 noundef %50, i32 noundef 0)
  %52 = icmp ne i32 %51, 0
  br i1 %52, label %54, label %53

53:                                               ; preds = %45
  br label %56

54:                                               ; preds = %45
  %55 = load ptr, ptr %8, align 8, !tbaa !19
  store ptr %55, ptr %3, align 8
  store i32 1, ptr %10, align 4
  br label %112

56:                                               ; preds = %53
  %57 = load ptr, ptr %8, align 8, !tbaa !19
  %58 = getelementptr inbounds nuw %struct.Fraig_NodeStruct_t_, ptr %57, i32 0, i32 12
  %59 = load ptr, ptr %58, align 8, !tbaa !47
  store ptr %59, ptr %8, align 8, !tbaa !19
  br label %42, !llvm.loop !48

60:                                               ; preds = %42
  %61 = load ptr, ptr %7, align 8, !tbaa !19
  %62 = getelementptr inbounds nuw %struct.Fraig_NodeStruct_t_, ptr %61, i32 0, i32 12
  %63 = load ptr, ptr %62, align 8, !tbaa !47
  %64 = load ptr, ptr %5, align 8, !tbaa !19
  %65 = getelementptr inbounds nuw %struct.Fraig_NodeStruct_t_, ptr %64, i32 0, i32 12
  store ptr %63, ptr %65, align 8, !tbaa !47
  %66 = load ptr, ptr %5, align 8, !tbaa !19
  %67 = load ptr, ptr %7, align 8, !tbaa !19
  %68 = getelementptr inbounds nuw %struct.Fraig_NodeStruct_t_, ptr %67, i32 0, i32 12
  store ptr %66, ptr %68, align 8, !tbaa !47
  store ptr null, ptr %3, align 8
  store i32 1, ptr %10, align 4
  br label %112

69:                                               ; preds = %39
  %70 = load ptr, ptr %7, align 8, !tbaa !19
  %71 = getelementptr inbounds nuw %struct.Fraig_NodeStruct_t_, ptr %70, i32 0, i32 11
  %72 = load ptr, ptr %71, align 8, !tbaa !49
  store ptr %72, ptr %7, align 8, !tbaa !19
  br label %28, !llvm.loop !50

73:                                               ; preds = %28
  %74 = load ptr, ptr %6, align 8, !tbaa !7
  %75 = getelementptr inbounds nuw %struct.Fraig_HashTableStruct_t_, ptr %74, i32 0, i32 2
  %76 = load i32, ptr %75, align 4, !tbaa !39
  %77 = load ptr, ptr %6, align 8, !tbaa !7
  %78 = getelementptr inbounds nuw %struct.Fraig_HashTableStruct_t_, ptr %77, i32 0, i32 1
  %79 = load i32, ptr %78, align 8, !tbaa !10
  %80 = mul nsw i32 2, %79
  %81 = icmp sge i32 %76, %80
  br i1 %81, label %82, label %91

82:                                               ; preds = %73
  %83 = load ptr, ptr %6, align 8, !tbaa !7
  call void @Fraig_TableResizeF(ptr noundef %83, i32 noundef 1)
  %84 = load ptr, ptr %5, align 8, !tbaa !19
  %85 = getelementptr inbounds nuw %struct.Fraig_NodeStruct_t_, ptr %84, i32 0, i32 15
  %86 = load i32, ptr %85, align 8, !tbaa !44
  %87 = load ptr, ptr %6, align 8, !tbaa !7
  %88 = getelementptr inbounds nuw %struct.Fraig_HashTableStruct_t_, ptr %87, i32 0, i32 1
  %89 = load i32, ptr %88, align 8, !tbaa !10
  %90 = urem i32 %86, %89
  store i32 %90, ptr %9, align 4, !tbaa !3
  br label %91

91:                                               ; preds = %82, %73
  %92 = load ptr, ptr %6, align 8, !tbaa !7
  %93 = getelementptr inbounds nuw %struct.Fraig_HashTableStruct_t_, ptr %92, i32 0, i32 0
  %94 = load ptr, ptr %93, align 8, !tbaa !13
  %95 = load i32, ptr %9, align 4, !tbaa !3
  %96 = zext i32 %95 to i64
  %97 = getelementptr inbounds nuw ptr, ptr %94, i64 %96
  %98 = load ptr, ptr %97, align 8, !tbaa !19
  %99 = load ptr, ptr %5, align 8, !tbaa !19
  %100 = getelementptr inbounds nuw %struct.Fraig_NodeStruct_t_, ptr %99, i32 0, i32 11
  store ptr %98, ptr %100, align 8, !tbaa !49
  %101 = load ptr, ptr %5, align 8, !tbaa !19
  %102 = load ptr, ptr %6, align 8, !tbaa !7
  %103 = getelementptr inbounds nuw %struct.Fraig_HashTableStruct_t_, ptr %102, i32 0, i32 0
  %104 = load ptr, ptr %103, align 8, !tbaa !13
  %105 = load i32, ptr %9, align 4, !tbaa !3
  %106 = zext i32 %105 to i64
  %107 = getelementptr inbounds nuw ptr, ptr %104, i64 %106
  store ptr %101, ptr %107, align 8, !tbaa !19
  %108 = load ptr, ptr %6, align 8, !tbaa !7
  %109 = getelementptr inbounds nuw %struct.Fraig_HashTableStruct_t_, ptr %108, i32 0, i32 2
  %110 = load i32, ptr %109, align 4, !tbaa !39
  %111 = add nsw i32 %110, 1
  store i32 %111, ptr %109, align 4, !tbaa !39
  store ptr null, ptr %3, align 8
  store i32 1, ptr %10, align 4
  br label %112

112:                                              ; preds = %91, %60, %54
  call void @llvm.lifetime.end.p0(i64 4, ptr %9) #7
  call void @llvm.lifetime.end.p0(i64 8, ptr %8) #7
  call void @llvm.lifetime.end.p0(i64 8, ptr %7) #7
  call void @llvm.lifetime.end.p0(i64 8, ptr %6) #7
  %113 = load ptr, ptr %3, align 8
  ret ptr %113
}