; Function Attrs: nounwind uwtable
define ptr @Fraig_HashTableLookupF(ptr noundef readonly captures(none) %0, ptr noundef %1) local_unnamed_addr #4 {
  %3 = getelementptr inbounds nuw i8, ptr %0, i64 56
  %4 = load ptr, ptr %3, align 8, !tbaa !37
  %5 = getelementptr inbounds nuw i8, ptr %1, i64 96
  %6 = load i32, ptr %5, align 8, !tbaa !38
  %7 = getelementptr inbounds nuw i8, ptr %4, i64 8
  %8 = load i32, ptr %7, align 8, !tbaa !6
  %9 = urem i32 %6, %8
  %10 = load ptr, ptr %4, align 8, !tbaa !13
  %11 = zext i32 %9 to i64
  %12 = getelementptr inbounds nuw ptr, ptr %10, i64 %11
  %.03454 = load ptr, ptr %12, align 8, !tbaa !29
  %.not55 = icmp eq ptr %.03454, null
  br i1 %.not55, label %._crit_edge, label %.lr.ph

.lr.ph:                                           ; preds = %2
  %13 = getelementptr inbounds nuw i8, ptr %0, i64 72
  %14 = load i32, ptr %13, align 8, !tbaa !39
  %.fr61 = freeze i32 %14
  %15 = icmp sgt i32 %.fr61, 0
  %16 = getelementptr inbounds nuw i8, ptr %1, i64 104
  %wide.trip.count.i = zext nneg i32 %.fr61 to i64
  br i1 %15, label %.lr.ph.split.us, label %.lr.ph.split

.lr.ph.split.us:                                  ; preds = %.lr.ph, %.loopexit47.us
  %.03456.us = phi ptr [ %.034.us, %.loopexit47.us ], [ %.03454, %.lr.ph ]
  %17 = getelementptr inbounds nuw i8, ptr %.03456.us, i64 96
  %18 = load i32, ptr %17, align 8, !tbaa !38
  %.not22.i.us = icmp eq i32 %6, %18
  br i1 %.not22.i.us, label %.preheader24.i.us, label %.loopexit47.us

.preheader24.i.us:                                ; preds = %.lr.ph.split.us
  %19 = load ptr, ptr %16, align 8, !tbaa !40
  %20 = getelementptr inbounds nuw i8, ptr %.03456.us, i64 104
  %21 = load ptr, ptr %20, align 8, !tbaa !40
  br label %22

22:                                               ; preds = %28, %.preheader24.i.us
  %indvars.iv.i.us = phi i64 [ 0, %.preheader24.i.us ], [ %indvars.iv.next.i.us, %28 ]
  %23 = getelementptr inbounds nuw i32, ptr %19, i64 %indvars.iv.i.us
  %24 = load i32, ptr %23, align 4, !tbaa !41
  %25 = getelementptr inbounds nuw i32, ptr %21, i64 %indvars.iv.i.us
  %26 = load i32, ptr %25, align 4, !tbaa !41
  %.not23.i.us = icmp eq i32 %24, %26
  br i1 %.not23.i.us, label %28, label %.loopexit47.us

.loopexit47.us:                                   ; preds = %22, %.lr.ph.split.us
  %27 = getelementptr inbounds nuw i8, ptr %.03456.us, i64 64
  %.034.us = load ptr, ptr %27, align 8, !tbaa !29
  %.not.us = icmp eq ptr %.034.us, null
  br i1 %.not.us, label %._crit_edge, label %.lr.ph.split.us, !llvm.loop !42

28:                                               ; preds = %22
  %indvars.iv.next.i.us = add nuw nsw i64 %indvars.iv.i.us, 1
  %exitcond.not.i.us = icmp eq i64 %indvars.iv.next.i.us, %wide.trip.count.i
  br i1 %exitcond.not.i.us, label %Fraig_CompareSimInfo.exit, label %22, !llvm.loop !43

.lr.ph.split:                                     ; preds = %.lr.ph, %58
  %.03456 = phi ptr [ %.034, %58 ], [ %.03454, %.lr.ph ]
  %29 = getelementptr inbounds nuw i8, ptr %.03456, i64 96
  %30 = load i32, ptr %29, align 8, !tbaa !38
  %.not22.i = icmp eq i32 %6, %30
  br i1 %.not22.i, label %Fraig_CompareSimInfo.exit, label %58

Fraig_CompareSimInfo.exit:                        ; preds = %.lr.ph.split, %28
  %.03453 = phi ptr [ %.03456.us, %28 ], [ %.03456, %.lr.ph.split ]
  %31 = getelementptr inbounds nuw i8, ptr %0, i64 136
  %32 = load i32, ptr %31, align 8, !tbaa !44
  %.fr = freeze i32 %32
  %33 = getelementptr inbounds nuw i8, ptr %1, i64 100
  %34 = load i32, ptr %33, align 4, !tbaa !45
  %35 = icmp sgt i32 %.fr, 0
  %36 = getelementptr inbounds nuw i8, ptr %1, i64 112
  %wide.trip.count41.i = zext nneg i32 %.fr to i64
  br i1 %35, label %Fraig_CompareSimInfo.exit.split.us, label %Fraig_CompareSimInfo.exit.split

Fraig_CompareSimInfo.exit.split.us:               ; preds = %Fraig_CompareSimInfo.exit, %.loopexit.us
  %.03358.us = phi ptr [ %48, %.loopexit.us ], [ %.03453, %Fraig_CompareSimInfo.exit ]
  %37 = getelementptr inbounds nuw i8, ptr %.03358.us, i64 100
  %38 = load i32, ptr %37, align 4, !tbaa !45
  %.not20.i.us = icmp eq i32 %34, %38
  br i1 %.not20.i.us, label %.preheader.i.us, label %.loopexit.us

.preheader.i.us:                                  ; preds = %Fraig_CompareSimInfo.exit.split.us
  %39 = load ptr, ptr %36, align 8, !tbaa !46
  %40 = getelementptr inbounds nuw i8, ptr %.03358.us, i64 112
  %41 = load ptr, ptr %40, align 8, !tbaa !46
  br label %42

42:                                               ; preds = %49, %.preheader.i.us
  %indvars.iv38.i.us = phi i64 [ 0, %.preheader.i.us ], [ %indvars.iv.next39.i.us, %49 ]
  %43 = getelementptr inbounds nuw i32, ptr %39, i64 %indvars.iv38.i.us
  %44 = load i32, ptr %43, align 4, !tbaa !41
  %45 = getelementptr inbounds nuw i32, ptr %41, i64 %indvars.iv38.i.us
  %46 = load i32, ptr %45, align 4, !tbaa !41
  %.not21.i.us = icmp eq i32 %44, %46
  br i1 %.not21.i.us, label %49, label %.loopexit.us

.loopexit.us:                                     ; preds = %42, %Fraig_CompareSimInfo.exit.split.us
  %47 = getelementptr inbounds nuw i8, ptr %.03358.us, i64 72
  %48 = load ptr, ptr %47, align 8, !tbaa !47
  %.not38.us = icmp eq ptr %48, null
  br i1 %.not38.us, label %.split.us, label %Fraig_CompareSimInfo.exit.split.us, !llvm.loop !48

49:                                               ; preds = %42
  %indvars.iv.next39.i.us = add nuw nsw i64 %indvars.iv38.i.us, 1
  %exitcond42.not.i.us = icmp eq i64 %indvars.iv.next39.i.us, %wide.trip.count41.i
  br i1 %exitcond42.not.i.us, label %Fraig_CompareSimInfo.exit41, label %42, !llvm.loop !49

Fraig_CompareSimInfo.exit.split:                  ; preds = %Fraig_CompareSimInfo.exit, %52
  %.03358 = phi ptr [ %54, %52 ], [ %.03453, %Fraig_CompareSimInfo.exit ]
  %50 = getelementptr inbounds nuw i8, ptr %.03358, i64 100
  %51 = load i32, ptr %50, align 4, !tbaa !45
  %.not20.i = icmp eq i32 %34, %51
  br i1 %.not20.i, label %Fraig_CompareSimInfo.exit41, label %52

52:                                               ; preds = %Fraig_CompareSimInfo.exit.split
  %53 = getelementptr inbounds nuw i8, ptr %.03358, i64 72
  %54 = load ptr, ptr %53, align 8, !tbaa !47
  %.not38 = icmp eq ptr %54, null
  br i1 %.not38, label %.split.us, label %Fraig_CompareSimInfo.exit.split, !llvm.loop !48

.split.us:                                        ; preds = %52, %.loopexit.us
  %55 = getelementptr inbounds nuw i8, ptr %.03453, i64 72
  %56 = load ptr, ptr %55, align 8, !tbaa !47
  %57 = getelementptr inbounds nuw i8, ptr %1, i64 72
  store ptr %56, ptr %57, align 8, !tbaa !47
  store ptr %1, ptr %55, align 8, !tbaa !47
  br label %Fraig_CompareSimInfo.exit41

58:                                               ; preds = %.lr.ph.split
  %59 = getelementptr inbounds nuw i8, ptr %.03456, i64 64
  %.034 = load ptr, ptr %59, align 8, !tbaa !29
  %.not = icmp eq ptr %.034, null
  br i1 %.not, label %._crit_edge, label %.lr.ph.split, !llvm.loop !42

._crit_edge:                                      ; preds = %58, %.loopexit47.us, %2
  %60 = getelementptr inbounds nuw i8, ptr %4, i64 12
  %61 = load i32, ptr %60, align 4, !tbaa !33
  %62 = shl nsw i32 %8, 1
  %.not36 = icmp slt i32 %61, %62
  br i1 %.not36, label %67, label %63

63:                                               ; preds = %._crit_edge
  tail call fastcc void @Fraig_TableResizeF(ptr noundef nonnull %4, i32 noundef 1)
  %64 = load i32, ptr %5, align 8, !tbaa !38
  %65 = load i32, ptr %7, align 8, !tbaa !6
  %66 = urem i32 %64, %65
  %.pre = load ptr, ptr %4, align 8, !tbaa !13
  %.pre70 = zext i32 %66 to i64
  %.phi.trans.insert = getelementptr inbounds nuw ptr, ptr %.pre, i64 %.pre70
  %.pre71 = load ptr, ptr %.phi.trans.insert, align 8, !tbaa !29
  %.pre72 = load i32, ptr %60, align 4, !tbaa !33
  br label %67

67:                                               ; preds = %63, %._crit_edge
  %68 = phi i32 [ %.pre72, %63 ], [ %61, %._crit_edge ]
  %69 = phi ptr [ %.pre71, %63 ], [ %.03454, %._crit_edge ]
  %.pre-phi = phi i64 [ %.pre70, %63 ], [ %11, %._crit_edge ]
  %70 = phi ptr [ %.pre, %63 ], [ %10, %._crit_edge ]
  %71 = getelementptr inbounds nuw ptr, ptr %70, i64 %.pre-phi
  %72 = getelementptr inbounds nuw i8, ptr %1, i64 64
  store ptr %69, ptr %72, align 8, !tbaa !50
  store ptr %1, ptr %71, align 8, !tbaa !29
  %73 = add nsw i32 %68, 1
  store i32 %73, ptr %60, align 4, !tbaa !33
  br label %Fraig_CompareSimInfo.exit41

Fraig_CompareSimInfo.exit41:                      ; preds = %Fraig_CompareSimInfo.exit.split, %49, %67, %.split.us
  %.035 = phi ptr [ null, %.split.us ], [ null, %67 ], [ %.03358.us, %49 ], [ %.03358, %Fraig_CompareSimInfo.exit.split ]
  ret ptr %.035
}